target datalayout = "e-m:e-p270:32:32-p271:32:32-p272:64:64-i64:64-i128:128-f80:128-n8:16:32:64-S128"
target triple = "x86_64-pc-linux-gnu"

%struct.PJconsts = type { ptr, ptr, ptr, ptr, ptr, ptr, ptr, ptr, ptr, ptr, ptr, ptr, i32, ptr, ptr, ptr, ptr, ptr, ptr, ptr, ptr, double, double, double, double, double, double, double, double, double, double, double, double, double, double, double, double, double, double, double, double, double, double, i32, i32, i32, i32, i32, i32, i32, i32, i32, i32, i32, ptr, ptr, ptr, ptr, ptr, ptr, double, double, double, double, double, double, double, double, double, double, double, i32, [7 x double], i32, ptr, ptr, double, double, i32, [4 x i8], %"class.std::shared_ptr", i8, double, i8, %"class.std::__cxx11::basic_string", %"class.std::__cxx11::basic_string", %"class.std::__cxx11::basic_string", i8, %"class.std::vector", i32, %"class.std::vector.3", i32, i8, i8, i8, ptr }
%"class.std::shared_ptr" = type { %"class.std::__shared_ptr" }
%"class.std::__shared_ptr" = type { ptr, %"class.std::__shared_count" }
%"class.std::__shared_count" = type { ptr }
%"class.std::__cxx11::basic_string" = type { %"struct.std::__cxx11::basic_string<char>::_Alloc_hider", i64, %union.anon }
%"struct.std::__cxx11::basic_string<char>::_Alloc_hider" = type { ptr }
%union.anon = type { i64, [8 x i8] }
%"class.std::vector" = type { %"struct.std::_Vector_base" }
%"struct.std::_Vector_base" = type { %"struct.std::_Vector_base<osgeo::proj::operation::GridDescription, std::allocator<osgeo::proj::operation::GridDescription>>::_Vector_impl" }
%"struct.std::_Vector_base<osgeo::proj::operation::GridDescription, std::allocator<osgeo::proj::operation::GridDescription>>::_Vector_impl" = type { %"struct.std::_Vector_base<osgeo::proj::operation::GridDescription, std::allocator<osgeo::proj::operation::GridDescription>>::_Vector_impl_data" }
%"struct.std::_Vector_base<osgeo::proj::operation::GridDescription, std::allocator<osgeo::proj::operation::GridDescription>>::_Vector_impl_data" = type { ptr, ptr, ptr }
%"class.std::vector.3" = type { %"struct.std::_Vector_base.4" }
%"struct.std::_Vector_base.4" = type { %"struct.std::_Vector_base<PJCoordOperation, std::allocator<PJCoordOperation>>::_Vector_impl" }
%"struct.std::_Vector_base<PJCoordOperation, std::allocator<PJCoordOperation>>::_Vector_impl" = type { %"struct.std::_Vector_base<PJCoordOperation, std::allocator<PJCoordOperation>>::_Vector_impl_data" }
%"struct.std::_Vector_base<PJCoordOperation, std::allocator<PJCoordOperation>>::_Vector_impl_data" = type { ptr, ptr, ptr }

@.str.4 = private unnamed_addr constant [21 x i8] c"Invalid eccentricity\00", align 1

; Function Attrs: inlinehint mustprogress nounwind uwtable
define linkonce_odr noundef double @_ZSt3powIdiEN9__gnu_cxx9__promoteIDTplcvNS1_IT_Xsr3std12__is_integerIS2_EE7__valueEE6__typeELi0EcvNS1_IT0_Xsr3std12__is_integerIS5_EE7__valueEE6__typeELi0EEXsr3std12__is_integerIS8_EE7__valueEE6__typeES2_S5_(double noundef %0, i32 noundef %1) #6 comdat {
  %3 = alloca double, align 8
  %4 = alloca i32, align 4
  store double %0, ptr %3, align 8, !tbaa !55
  store i32 %1, ptr %4, align 4, !tbaa !8
  %5 = load double, ptr %3, align 8, !tbaa !55
  %6 = load i32, ptr %4, align 4, !tbaa !8
  %7 = sitofp i32 %6 to double
  %8 = call double @pow(double noundef %5, double noundef %7) #16, !tbaa !8
  ret double %8
}

; Function Attrs: mustprogress uwtable
define hidden noundef i32 @_Z24pj_calc_ellipsoid_paramsP8PJconstsdd(ptr noundef %0, double noundef %1, double noundef %2) #0 {
  %4 = alloca i32, align 4
  %5 = alloca ptr, align 8
  %6 = alloca double, align 8
  %7 = alloca double, align 8
  store ptr %0, ptr %5, align 8, !tbaa !3
  store double %1, ptr %6, align 8, !tbaa !55
  store double %2, ptr %7, align 8, !tbaa !55
  %8 = load double, ptr %6, align 8, !tbaa !55
  %9 = load ptr, ptr %5, align 8, !tbaa !3
  %10 = getelementptr inbounds nuw %struct.PJconsts, ptr %9, i32 0, i32 21
  store double %8, ptr %10, align 8, !tbaa !43
  %11 = load double, ptr %7, align 8, !tbaa !55
  %12 = load ptr, ptr %5, align 8, !tbaa !3
  %13 = getelementptr inbounds nuw %struct.PJconsts, ptr %12, i32 0, i32 27
  store double %11, ptr %13, align 8, !tbaa !44
  %14 = load ptr, ptr %5, align 8, !tbaa !3
  %15 = getelementptr inbounds nuw %struct.PJconsts, ptr %14, i32 0, i32 26
  %16 = load double, ptr %15, align 8, !tbaa !53
  %17 = fcmp oeq double %16, 0.000000e+00
  br i1 %17, label %18, label %25

18:                                               ; preds = %3
  %19 = load ptr, ptr %5, align 8, !tbaa !3
  %20 = getelementptr inbounds nuw %struct.PJconsts, ptr %19, i32 0, i32 27
  %21 = load double, ptr %20, align 8, !tbaa !44
  %22 = call double @sqrt(double noundef %21) #16, !tbaa !8
  %23 = load ptr, ptr %5, align 8, !tbaa !3
  %24 = getelementptr inbounds nuw %struct.PJconsts, ptr %23, i32 0, i32 26
  store double %22, ptr %24, align 8, !tbaa !53
  br label %25

25:                                               ; preds = %18, %3
  %26 = load ptr, ptr %5, align 8, !tbaa !3
  %27 = getelementptr inbounds nuw %struct.PJconsts, ptr %26, i32 0, i32 26
  %28 = load double, ptr %27, align 8, !tbaa !53
  %29 = call double @asin(double noundef %28) #16, !tbaa !8
  %30 = load ptr, ptr %5, align 8, !tbaa !3
  %31 = getelementptr inbounds nuw %struct.PJconsts, ptr %30, i32 0, i32 25
  store double %29, ptr %31, align 8, !tbaa !56
  %32 = load ptr, ptr %5, align 8, !tbaa !3
  %33 = getelementptr inbounds nuw %struct.PJconsts, ptr %32, i32 0, i32 25
  %34 = load double, ptr %33, align 8, !tbaa !56
  %35 = call double @tan(double noundef %34) #16, !tbaa !8
  %36 = load ptr, ptr %5, align 8, !tbaa !3
  %37 = getelementptr inbounds nuw %struct.PJconsts, ptr %36, i32 0, i32 28
  store double %35, ptr %37, align 8, !tbaa !57
  %38 = load ptr, ptr %5, align 8, !tbaa !3
  %39 = getelementptr inbounds nuw %struct.PJconsts, ptr %38, i32 0, i32 28
  %40 = load double, ptr %39, align 8, !tbaa !57
  %41 = load ptr, ptr %5, align 8, !tbaa !3
  %42 = getelementptr inbounds nuw %struct.PJconsts, ptr %41, i32 0, i32 28
  %43 = load double, ptr %42, align 8, !tbaa !57
  %44 = fmul double %40, %43
  %45 = load ptr, ptr %5, align 8, !tbaa !3
  %46 = getelementptr inbounds nuw %struct.PJconsts, ptr %45, i32 0, i32 29
  store double %44, ptr %46, align 8, !tbaa !58
  %47 = load ptr, ptr %5, align 8, !tbaa !3
  %48 = getelementptr inbounds nuw %struct.PJconsts, ptr %47, i32 0, i32 25
  %49 = load double, ptr %48, align 8, !tbaa !56
  %50 = fcmp une double 0.000000e+00, %49
  br i1 %50, label %51, label %68

51:                                               ; preds = %25
  %52 = load ptr, ptr %5, align 8, !tbaa !3
  %53 = getelementptr inbounds nuw %struct.PJconsts, ptr %52, i32 0, i32 25
  %54 = load double, ptr %53, align 8, !tbaa !56
  %55 = call double @sin(double noundef %54) #16, !tbaa !8
  %56 = load ptr, ptr %5, align 8, !tbaa !3
  %57 = getelementptr inbounds nuw %struct.PJconsts, ptr %56, i32 0, i32 25
  %58 = load double, ptr %57, align 8, !tbaa !56
  %59 = call double @sin(double noundef %58) #16, !tbaa !8
  %60 = load ptr, ptr %5, align 8, !tbaa !3
  %61 = getelementptr inbounds nuw %struct.PJconsts, ptr %60, i32 0, i32 25
  %62 = load double, ptr %61, align 8, !tbaa !56
  %63 = call double @sin(double noundef %62) #16, !tbaa !8
  %64 = fneg double %59
  %65 = call double @llvm.fmuladd.f64(double %64, double %63, double 2.000000e+00)
  %66 = call double @sqrt(double noundef %65) #16, !tbaa !8
  %67 = fdiv double %55, %66
  br label %69

68:                                               ; preds = %25
  br label %69

69:                                               ; preds = %68, %51
  %70 = phi double [ %67, %51 ], [ 0.000000e+00, %68 ]
  %71 = load ptr, ptr %5, align 8, !tbaa !3
  %72 = getelementptr inbounds nuw %struct.PJconsts, ptr %71, i32 0, i32 30
  store double %70, ptr %72, align 8, !tbaa !59
  %73 = load ptr, ptr %5, align 8, !tbaa !3
  %74 = getelementptr inbounds nuw %struct.PJconsts, ptr %73, i32 0, i32 30
  %75 = load double, ptr %74, align 8, !tbaa !59
  %76 = load ptr, ptr %5, align 8, !tbaa !3
  %77 = getelementptr inbounds nuw %struct.PJconsts, ptr %76, i32 0, i32 30
  %78 = load double, ptr %77, align 8, !tbaa !59
  %79 = fmul double %75, %78
  %80 = load ptr, ptr %5, align 8, !tbaa !3
  %81 = getelementptr inbounds nuw %struct.PJconsts, ptr %80, i32 0, i32 31
  store double %79, ptr %81, align 8, !tbaa !60
  %82 = load ptr, ptr %5, align 8, !tbaa !3
  %83 = getelementptr inbounds nuw %struct.PJconsts, ptr %82, i32 0, i32 34
  %84 = load double, ptr %83, align 8, !tbaa !45
  %85 = fcmp oeq double 0.000000e+00, %84
  br i1 %85, label %86, label %94

86:                                               ; preds = %69
  %87 = load ptr, ptr %5, align 8, !tbaa !3
  %88 = getelementptr inbounds nuw %struct.PJconsts, ptr %87, i32 0, i32 25
  %89 = load double, ptr %88, align 8, !tbaa !56
  %90 = call double @cos(double noundef %89) #16, !tbaa !8
  %91 = fsub double 1.000000e+00, %90
  %92 = load ptr, ptr %5, align 8, !tbaa !3
  %93 = getelementptr inbounds nuw %struct.PJconsts, ptr %92, i32 0, i32 34
  store double %91, ptr %93, align 8, !tbaa !45
  br label %94

94:                                               ; preds = %86, %69
  %95 = load ptr, ptr %5, align 8, !tbaa !3
  %96 = getelementptr inbounds nuw %struct.PJconsts, ptr %95, i32 0, i32 34
  %97 = load double, ptr %96, align 8, !tbaa !45
  %98 = fcmp oge double %97, 0.000000e+00
  br i1 %98, label %99, label %104

99:                                               ; preds = %94
  %100 = load ptr, ptr %5, align 8, !tbaa !3
  %101 = getelementptr inbounds nuw %struct.PJconsts, ptr %100, i32 0, i32 34
  %102 = load double, ptr %101, align 8, !tbaa !45
  %103 = fcmp olt double %102, 1.000000e+00
  br i1 %103, label %108, label %104

104:                                              ; preds = %99, %94
  %105 = load ptr, ptr %5, align 8, !tbaa !3
  call void (ptr, ptr, ...) @_Z14proj_log_errorPK8PJconstsPKcz(ptr noundef %105, ptr noundef @.str.4)
  %106 = load ptr, ptr %5, align 8, !tbaa !3
  %107 = call i32 @proj_errno_set(ptr noundef %106, i32 noundef 1027)
  store i32 1027, ptr %4, align 4
  br label %225

108:                                              ; preds = %99
  %109 = load ptr, ptr %5, align 8, !tbaa !3
  %110 = getelementptr inbounds nuw %struct.PJconsts, ptr %109, i32 0, i32 34
  %111 = load double, ptr %110, align 8, !tbaa !45
  %112 = fcmp une double %111, 0.000000e+00
  br i1 %112, label %113, label %118

113:                                              ; preds = %108
  %114 = load ptr, ptr %5, align 8, !tbaa !3
  %115 = getelementptr inbounds nuw %struct.PJconsts, ptr %114, i32 0, i32 34
  %116 = load double, ptr %115, align 8, !tbaa !45
  %117 = fdiv double 1.000000e+00, %116
  br label %119

118:                                              ; preds = %108
  br label %119

119:                                              ; preds = %118, %113
  %120 = phi double [ %117, %113 ], [ 0x7FF0000000000000, %118 ]
  %121 = load ptr, ptr %5, align 8, !tbaa !3
  %122 = getelementptr inbounds nuw %struct.PJconsts, ptr %121, i32 0, i32 37
  store double %120, ptr %122, align 8, !tbaa !52
  %123 = load ptr, ptr %5, align 8, !tbaa !3
  %124 = getelementptr inbounds nuw %struct.PJconsts, ptr %123, i32 0, i32 25
  %125 = load double, ptr %124, align 8, !tbaa !56
  %126 = call double @cos(double noundef %125) #16, !tbaa !8
  %127 = fcmp une double %126, 0.000000e+00
  br i1 %127, label %128, label %135

128:                                              ; preds = %119
  %129 = load ptr, ptr %5, align 8, !tbaa !3
  %130 = getelementptr inbounds nuw %struct.PJconsts, ptr %129, i32 0, i32 25
  %131 = load double, ptr %130, align 8, !tbaa !56
  %132 = call double @cos(double noundef %131) #16, !tbaa !8
  %133 = fdiv double 1.000000e+00, %132
  %134 = fsub double %133, 1.000000e+00
  br label %136

135:                                              ; preds = %119
  br label %136

136:                                              ; preds = %135, %128
  %137 = phi double [ %134, %128 ], [ 0.000000e+00, %135 ]
  %138 = load ptr, ptr %5, align 8, !tbaa !3
  %139 = getelementptr inbounds nuw %struct.PJconsts, ptr %138, i32 0, i32 35
  store double %137, ptr %139, align 8, !tbaa !61
  %140 = load ptr, ptr %5, align 8, !tbaa !3
  %141 = getelementptr inbounds nuw %struct.PJconsts, ptr %140, i32 0, i32 35
  %142 = load double, ptr %141, align 8, !tbaa !61
  %143 = fcmp une double %142, 0.000000e+00
  br i1 %143, label %144, label %149

144:                                              ; preds = %136
  %145 = load ptr, ptr %5, align 8, !tbaa !3
  %146 = getelementptr inbounds nuw %struct.PJconsts, ptr %145, i32 0, i32 35
  %147 = load double, ptr %146, align 8, !tbaa !61
  %148 = fdiv double 1.000000e+00, %147
  br label %150

149:                                              ; preds = %136
  br label %150

150:                                              ; preds = %149, %144
  %151 = phi double [ %148, %144 ], [ 0x7FF0000000000000, %149 ]
  %152 = load ptr, ptr %5, align 8, !tbaa !3
  %153 = getelementptr inbounds nuw %struct.PJconsts, ptr %152, i32 0, i32 38
  store double %151, ptr %153, align 8, !tbaa !62
  %154 = load ptr, ptr %5, align 8, !tbaa !3
  %155 = getelementptr inbounds nuw %struct.PJconsts, ptr %154, i32 0, i32 25
  %156 = load double, ptr %155, align 8, !tbaa !56
  %157 = fdiv double %156, 2.000000e+00
  %158 = call double @tan(double noundef %157) #16, !tbaa !8
  %159 = call noundef double @_ZSt3powIdiEN9__gnu_cxx9__promoteIDTplcvNS1_IT_Xsr3std12__is_integerIS2_EE7__valueEE6__typeELi0EcvNS1_IT0_Xsr3std12__is_integerIS5_EE7__valueEE6__typeELi0EEXsr3std12__is_integerIS8_EE7__valueEE6__typeES2_S5_(double noundef %158, i32 noundef 2)
  %160 = load ptr, ptr %5, align 8, !tbaa !3
  %161 = getelementptr inbounds nuw %struct.PJconsts, ptr %160, i32 0, i32 36
  store double %159, ptr %161, align 8, !tbaa !63
  %162 = load ptr, ptr %5, align 8, !tbaa !3
  %163 = getelementptr inbounds nuw %struct.PJconsts, ptr %162, i32 0, i32 36
  %164 = load double, ptr %163, align 8, !tbaa !63
  %165 = fcmp une double %164, 0.000000e+00
  br i1 %165, label %166, label %171

166:                                              ; preds = %150
  %167 = load ptr, ptr %5, align 8, !tbaa !3
  %168 = getelementptr inbounds nuw %struct.PJconsts, ptr %167, i32 0, i32 36
  %169 = load double, ptr %168, align 8, !tbaa !63
  %170 = fdiv double 1.000000e+00, %169
  br label %172

171:                                              ; preds = %150
  br label %172

172:                                              ; preds = %171, %166
  %173 = phi double [ %170, %166 ], [ 0x7FF0000000000000, %171 ]
  %174 = load ptr, ptr %5, align 8, !tbaa !3
  %175 = getelementptr inbounds nuw %struct.PJconsts, ptr %174, i32 0, i32 39
  store double %173, ptr %175, align 8, !tbaa !64
  %176 = load ptr, ptr %5, align 8, !tbaa !3
  %177 = getelementptr inbounds nuw %struct.PJconsts, ptr %176, i32 0, i32 22
  %178 = load double, ptr %177, align 8, !tbaa !54
  %179 = fcmp oeq double 0.000000e+00, %178
  br i1 %179, label %180, label %191

180:                                              ; preds = %172
  %181 = load ptr, ptr %5, align 8, !tbaa !3
  %182 = getelementptr inbounds nuw %struct.PJconsts, ptr %181, i32 0, i32 34
  %183 = load double, ptr %182, align 8, !tbaa !45
  %184 = fsub double 1.000000e+00, %183
  %185 = load ptr, ptr %5, align 8, !tbaa !3
  %186 = getelementptr inbounds nuw %struct.PJconsts, ptr %185, i32 0, i32 21
  %187 = load double, ptr %186, align 8, !tbaa !43
  %188 = fmul double %184, %187
  %189 = load ptr, ptr %5, align 8, !tbaa !3
  %190 = getelementptr inbounds nuw %struct.PJconsts, ptr %189, i32 0, i32 22
  store double %188, ptr %190, align 8, !tbaa !54
  br label %191

191:                                              ; preds = %180, %172
  %192 = load ptr, ptr %5, align 8, !tbaa !3
  %193 = getelementptr inbounds nuw %struct.PJconsts, ptr %192, i32 0, i32 22
  %194 = load double, ptr %193, align 8, !tbaa !54
  %195 = fdiv double 1.000000e+00, %194
  %196 = load ptr, ptr %5, align 8, !tbaa !3
  %197 = getelementptr inbounds nuw %struct.PJconsts, ptr %196, i32 0, i32 24
  store double %195, ptr %197, align 8, !tbaa !65
  %198 = load ptr, ptr %5, align 8, !tbaa !3
  %199 = getelementptr inbounds nuw %struct.PJconsts, ptr %198, i32 0, i32 21
  %200 = load double, ptr %199, align 8, !tbaa !43
  %201 = fdiv double 1.000000e+00, %200
  %202 = load ptr, ptr %5, align 8, !tbaa !3
  %203 = getelementptr inbounds nuw %struct.PJconsts, ptr %202, i32 0, i32 23
  store double %201, ptr %203, align 8, !tbaa !66
  %204 = load ptr, ptr %5, align 8, !tbaa !3
  %205 = getelementptr inbounds nuw %struct.PJconsts, ptr %204, i32 0, i32 27
  %206 = load double, ptr %205, align 8, !tbaa !44
  %207 = fsub double 1.000000e+00, %206
  %208 = load ptr, ptr %5, align 8, !tbaa !3
  %209 = getelementptr inbounds nuw %struct.PJconsts, ptr %208, i32 0, i32 32
  store double %207, ptr %209, align 8, !tbaa !67
  %210 = load ptr, ptr %5, align 8, !tbaa !3
  %211 = getelementptr inbounds nuw %struct.PJconsts, ptr %210, i32 0, i32 32
  %212 = load double, ptr %211, align 8, !tbaa !67
  %213 = fcmp oeq double %212, 0.000000e+00
  br i1 %213, label %214, label %218

214:                                              ; preds = %191
  %215 = load ptr, ptr %5, align 8, !tbaa !3
  call void (ptr, ptr, ...) @_Z14proj_log_errorPK8PJconstsPKcz(ptr noundef %215, ptr noundef @.str.4)
  %216 = load ptr, ptr %5, align 8, !tbaa !3
  %217 = call i32 @proj_errno_set(ptr noundef %216, i32 noundef 1027)
  store i32 1027, ptr %4, align 4
  br label %225

218:                                              ; preds = %191
  %219 = load ptr, ptr %5, align 8, !tbaa !3
  %220 = getelementptr inbounds nuw %struct.PJconsts, ptr %219, i32 0, i32 32
  %221 = load double, ptr %220, align 8, !tbaa !67
  %222 = fdiv double 1.000000e+00, %221
  %223 = load ptr, ptr %5, align 8, !tbaa !3
  %224 = getelementptr inbounds nuw %struct.PJconsts, ptr %223, i32 0, i32 33
  store double %222, ptr %224, align 8, !tbaa !68
  store i32 0, ptr %4, align 4
  br label %225

225:                                              ; preds = %218, %214, %104
  %226 = load i32, ptr %4, align 4
  ret i32 %226
}