; Function Attrs: mustprogress uwtable
define hidden noundef range(i32 0, 1028) i32 @_Z24pj_calc_ellipsoid_paramsP8PJconstsdd(ptr noundef initializes((168, 176), (200, 208), (216, 256)) %0, double noundef %1, double noundef %2) local_unnamed_addr #0 {
  %4 = getelementptr inbounds nuw i8, ptr %0, i64 168
  store double %1, ptr %4, align 8, !tbaa !44
  %5 = getelementptr inbounds nuw i8, ptr %0, i64 216
  store double %2, ptr %5, align 8, !tbaa !55
  %6 = getelementptr inbounds nuw i8, ptr %0, i64 208
  %7 = load double, ptr %6, align 8, !tbaa !54
  %8 = fcmp oeq double %7, 0.000000e+00
  br i1 %8, label %9, label %11

9:                                                ; preds = %3
  %10 = tail call double @sqrt(double noundef %2) #15, !tbaa !72
  store double %10, ptr %6, align 8, !tbaa !54
  br label %11

11:                                               ; preds = %9, %3
  %12 = phi double [ %10, %9 ], [ %7, %3 ]
  %13 = tail call double @asin(double noundef %12) #15, !tbaa !72
  %14 = getelementptr inbounds nuw i8, ptr %0, i64 200
  store double %13, ptr %14, align 8, !tbaa !53
  %15 = tail call double @tan(double noundef %13) #15, !tbaa !72
  %16 = getelementptr inbounds nuw i8, ptr %0, i64 224
  store double %15, ptr %16, align 8, !tbaa !56
  %17 = fmul double %15, %15
  %18 = getelementptr inbounds nuw i8, ptr %0, i64 232
  store double %17, ptr %18, align 8, !tbaa !57
  %19 = fcmp une double %13, 0.000000e+00
  br i1 %19, label %20, label %28

20:                                               ; preds = %11
  %21 = tail call double @sin(double noundef %13) #15, !tbaa !72
  %22 = tail call double @sin(double noundef %13) #15, !tbaa !72
  %23 = tail call double @sin(double noundef %13) #15, !tbaa !72
  %24 = fneg double %22
  %25 = tail call double @llvm.fmuladd.f64(double %24, double %23, double 2.000000e+00)
  %26 = tail call double @sqrt(double noundef %25) #15, !tbaa !72
  %27 = fdiv double %21, %26
  br label %28

28:                                               ; preds = %11, %20
  %29 = phi double [ %27, %20 ], [ 0.000000e+00, %11 ]
  %30 = getelementptr inbounds nuw i8, ptr %0, i64 240
  store double %29, ptr %30, align 8, !tbaa !58
  %31 = fmul double %29, %29
  %32 = getelementptr inbounds nuw i8, ptr %0, i64 248
  store double %31, ptr %32, align 8, !tbaa !59
  %33 = getelementptr inbounds nuw i8, ptr %0, i64 272
  %34 = load double, ptr %33, align 8, !tbaa !62
  %35 = fcmp oeq double %34, 0.000000e+00
  br i1 %35, label %36, label %39

36:                                               ; preds = %28
  %37 = tail call double @cos(double noundef %13) #15, !tbaa !72
  %38 = fsub double 1.000000e+00, %37
  store double %38, ptr %33, align 8, !tbaa !62
  br label %39

39:                                               ; preds = %36, %28
  %40 = phi double [ %38, %36 ], [ %34, %28 ]
  %41 = fcmp oge double %40, 0.000000e+00
  %42 = fcmp olt double %40, 1.000000e+00
  %or.cond = and i1 %41, %42
  br i1 %or.cond, label %45, label %43

43:                                               ; preds = %39
  tail call void (ptr, ptr, ...) @_Z14proj_log_errorPK8PJconstsPKcz(ptr noundef nonnull %0, ptr noundef nonnull @.str.4)
  %44 = tail call i32 @proj_errno_set(ptr noundef nonnull %0, i32 noundef 1027)
  br label %90

45:                                               ; preds = %39
  %46 = fcmp une double %40, 0.000000e+00
  %47 = fdiv double 1.000000e+00, %40
  %48 = select i1 %46, double %47, double 0x7FF0000000000000
  %49 = getelementptr inbounds nuw i8, ptr %0, i64 296
  store double %48, ptr %49, align 8, !tbaa !65
  %50 = tail call double @cos(double noundef %13) #15, !tbaa !72
  %51 = fcmp une double %50, 0.000000e+00
  br i1 %51, label %52, label %56

52:                                               ; preds = %45
  %53 = tail call double @cos(double noundef %13) #15, !tbaa !72
  %54 = fdiv double 1.000000e+00, %53
  %55 = fadd double %54, -1.000000e+00
  br label %56

56:                                               ; preds = %45, %52
  %57 = phi double [ %55, %52 ], [ 0.000000e+00, %45 ]
  %58 = getelementptr inbounds nuw i8, ptr %0, i64 280
  store double %57, ptr %58, align 8, !tbaa !63
  %59 = fcmp une double %57, 0.000000e+00
  %60 = fdiv double 1.000000e+00, %57
  %61 = select i1 %59, double %60, double 0x7FF0000000000000
  %62 = getelementptr inbounds nuw i8, ptr %0, i64 304
  store double %61, ptr %62, align 8, !tbaa !66
  %63 = fmul double %13, 5.000000e-01
  %64 = tail call double @tan(double noundef %63) #15, !tbaa !72
  %square = fmul double %64, %64
  %65 = getelementptr inbounds nuw i8, ptr %0, i64 288
  store double %square, ptr %65, align 8, !tbaa !64
  %66 = fcmp une double %square, 0.000000e+00
  %67 = fdiv double 1.000000e+00, %square
  %68 = select i1 %66, double %67, double 0x7FF0000000000000
  %69 = getelementptr inbounds nuw i8, ptr %0, i64 312
  store double %68, ptr %69, align 8, !tbaa !67
  %70 = getelementptr inbounds nuw i8, ptr %0, i64 176
  %71 = load double, ptr %70, align 8, !tbaa !50
  %72 = fcmp oeq double %71, 0.000000e+00
  br i1 %72, label %73, label %76

73:                                               ; preds = %56
  %74 = fsub double 1.000000e+00, %40
  %75 = fmul double %1, %74
  store double %75, ptr %70, align 8, !tbaa !50
  br label %76

76:                                               ; preds = %73, %56
  %77 = phi double [ %75, %73 ], [ %71, %56 ]
  %78 = fdiv double 1.000000e+00, %77
  %79 = getelementptr inbounds nuw i8, ptr %0, i64 192
  store double %78, ptr %79, align 8, !tbaa !52
  %80 = fdiv double 1.000000e+00, %1
  %81 = getelementptr inbounds nuw i8, ptr %0, i64 184
  store double %80, ptr %81, align 8, !tbaa !51
  %82 = fsub double 1.000000e+00, %2
  %83 = getelementptr inbounds nuw i8, ptr %0, i64 256
  store double %82, ptr %83, align 8, !tbaa !60
  %84 = fcmp oeq double %82, 0.000000e+00
  br i1 %84, label %85, label %87

85:                                               ; preds = %76
  tail call void (ptr, ptr, ...) @_Z14proj_log_errorPK8PJconstsPKcz(ptr noundef nonnull %0, ptr noundef nonnull @.str.4)
  %86 = tail call i32 @proj_errno_set(ptr noundef nonnull %0, i32 noundef 1027)
  br label %90

87:                                               ; preds = %76
  %88 = fdiv double 1.000000e+00, %82
  %89 = getelementptr inbounds nuw i8, ptr %0, i64 264
  store double %88, ptr %89, align 8, !tbaa !61
  br label %90

90:                                               ; preds = %87, %85, %43
  %.0 = phi i32 [ 1027, %85 ], [ 0, %87 ], [ 1027, %43 ]
  ret i32 %.0
}